; Function Attrs: nounwind allocsize(1) uwtable
define ptr @GC_debug_realloc(ptr noundef %0, i64 noundef %1, ptr noundef %2, i32 noundef %3) local_unnamed_addr #14 {
  %5 = icmp eq ptr %0, null
  br i1 %5, label %6, label %15

6:                                                ; preds = %4
  %7 = load i32, ptr @GC_all_interior_pointers, align 4
  %8 = sext i32 %7 to i64
  %9 = add nsw i64 %8, -41
  %10 = icmp ult i64 %1, %9
  %reass.sub.i = add i64 %1, 40
  %11 = sub i64 %reass.sub.i, %8
  %12 = select i1 %10, i64 %11, i64 -1
  %13 = tail call noalias ptr @GC_malloc_kind(i64 noundef %12, i32 noundef 1) #51
  %14 = tail call fastcc noalias ptr @store_debug_info(ptr noundef %13, i64 noundef %1, ptr noundef nonnull @.str.16, ptr noundef %2, i32 noundef %3)
  br label %109

15:                                               ; preds = %4
  %16 = icmp eq i64 %1, 0
  br i1 %16, label %17, label %18

17:                                               ; preds = %15
  tail call void @GC_debug_free(ptr noundef nonnull %0)
  br label %109

18:                                               ; preds = %15
  %.b.i = load i1, ptr @GC_is_initialized, align 4
  br i1 %.b.i, label %19, label %GC_base.exit.thread

19:                                               ; preds = %18
  %20 = ptrtoint ptr %0 to i64
  %21 = lshr i64 %20, 22
  %22 = and i64 %21, 2047
  %23 = getelementptr inbounds nuw [2048 x ptr], ptr getelementptr inbounds nuw (i8, ptr @GC_arrays, i64 166400), i64 0, i64 %22
  %24 = load ptr, ptr getelementptr inbounds nuw (i8, ptr @GC_arrays, i64 232), align 8
  br label %25

25:                                               ; preds = %25, %19
  %.027.in.i = phi ptr [ %23, %19 ], [ %31, %25 ]
  %.027.i = load ptr, ptr %.027.in.i, align 8
  %26 = getelementptr inbounds nuw i8, ptr %.027.i, i64 8208
  %27 = load i64, ptr %26, align 8
  %28 = icmp ne i64 %27, %21
  %29 = icmp ne ptr %.027.i, %24
  %30 = select i1 %28, i1 %29, i1 false
  %31 = getelementptr inbounds nuw i8, ptr %.027.i, i64 8216
  br i1 %30, label %25, label %32, !llvm.loop !20

32:                                               ; preds = %25
  %33 = lshr i64 %20, 12
  %34 = and i64 %33, 1023
  %35 = getelementptr inbounds nuw [1024 x ptr], ptr %.027.i, i64 0, i64 %34
  %36 = load ptr, ptr %35, align 8
  %37 = icmp eq ptr %36, null
  br i1 %37, label %GC_base.exit.thread, label %38

38:                                               ; preds = %32
  %39 = and i64 %20, -4096
  %40 = inttoptr i64 %39 to ptr
  %41 = icmp ult ptr %36, inttoptr (i64 4096 to ptr)
  br i1 %41, label %.lr.ph.i.i, label %GC_find_starting_hblk.exit.i

.lr.ph.i.i:                                       ; preds = %38, %GC_find_header.exit.i.i
  %.012.i.i = phi ptr [ %.0.i.i, %GC_find_header.exit.i.i ], [ %36, %38 ]
  %.0811.i.i = phi ptr [ %44, %GC_find_header.exit.i.i ], [ %40, %38 ]
  %42 = ptrtoint ptr %.012.i.i to i64
  %43 = sub nsw i64 0, %42
  %44 = getelementptr inbounds %struct.GC_hblk_s, ptr %.0811.i.i, i64 %43
  %45 = ptrtoint ptr %44 to i64
  %46 = lshr i64 %45, 22
  %47 = and i64 %46, 2047
  %48 = getelementptr inbounds nuw [2048 x ptr], ptr getelementptr inbounds nuw (i8, ptr @GC_arrays, i64 166400), i64 0, i64 %47
  br label %49

49:                                               ; preds = %49, %.lr.ph.i.i
  %.0.in.i.i.i = phi ptr [ %48, %.lr.ph.i.i ], [ %55, %49 ]
  %.0.i.i.i = load ptr, ptr %.0.in.i.i.i, align 8
  %50 = getelementptr inbounds nuw i8, ptr %.0.i.i.i, i64 8208
  %51 = load i64, ptr %50, align 8
  %52 = icmp ne i64 %51, %46
  %53 = icmp ne ptr %.0.i.i.i, %24
  %54 = select i1 %52, i1 %53, i1 false
  %55 = getelementptr inbounds nuw i8, ptr %.0.i.i.i, i64 8216
  br i1 %54, label %49, label %GC_find_header.exit.i.i, !llvm.loop !15

GC_find_header.exit.i.i:                          ; preds = %49
  %56 = lshr i64 %45, 12
  %57 = and i64 %56, 1023
  %58 = getelementptr inbounds nuw [1024 x ptr], ptr %.0.i.i.i, i64 0, i64 %57
  %.0.i.i = load ptr, ptr %58, align 8
  %59 = icmp ult ptr %.0.i.i, inttoptr (i64 4096 to ptr)
  br i1 %59, label %.lr.ph.i.i, label %GC_find_starting_hblk.exit.i, !llvm.loop !19

GC_find_starting_hblk.exit.i:                     ; preds = %GC_find_header.exit.i.i, %38
  %.032.i = phi ptr [ %36, %38 ], [ %.0.i.i, %GC_find_header.exit.i.i ]
  %.028.i = phi ptr [ %40, %38 ], [ %44, %GC_find_header.exit.i.i ]
  %.026.i = phi ptr [ %0, %38 ], [ %44, %GC_find_header.exit.i.i ]
  %60 = getelementptr inbounds nuw i8, ptr %.032.i, i64 25
  %61 = load i8, ptr %60, align 1
  %62 = and i8 %61, 4
  %.not.i = icmp eq i8 %62, 0
  br i1 %.not.i, label %63, label %GC_base.exit.thread

63:                                               ; preds = %GC_find_starting_hblk.exit.i
  %64 = ptrtoint ptr %.026.i to i64
  %65 = and i64 %64, -8
  %66 = inttoptr i64 %65 to ptr
  %67 = getelementptr inbounds nuw i8, ptr %.032.i, i64 32
  %68 = load i64, ptr %67, align 8
  %69 = and i64 %64, 4088
  %70 = urem i64 %69, %68
  %71 = sub nsw i64 0, %70
  %72 = getelementptr inbounds i8, ptr %66, i64 %71
  %73 = getelementptr inbounds i8, ptr %72, i64 %68
  %74 = getelementptr inbounds nuw i8, ptr %.028.i, i64 4096
  %75 = icmp ugt ptr %73, %74
  %76 = icmp ult i64 %68, 4097
  %or.cond.not35.i.not42 = and i1 %76, %75
  %.not30.i = icmp uge ptr %0, %73
  %or.cond31.i.not39 = or i1 %.not30.i, %or.cond.not35.i.not42
  %77 = icmp eq i64 %65, 0
  %or.cond = or i1 %77, %or.cond31.i.not39
  br i1 %or.cond, label %GC_base.exit.thread, label %79

GC_base.exit.thread:                              ; preds = %63, %GC_find_starting_hblk.exit.i, %32, %18
  tail call void (ptr, ...) @GC_log_printf(ptr noundef nonnull @.str.30, ptr noundef nonnull %0)
  %78 = load ptr, ptr @GC_on_abort, align 8
  tail call void %78(ptr noundef nonnull @.str.31) #41
  tail call void @abort() #47
  unreachable

79:                                               ; preds = %63
  %80 = ptrtoint ptr %72 to i64
  %81 = sub i64 %20, %80
  %.not = icmp eq i64 %81, 32
  br i1 %.not, label %84, label %82

82:                                               ; preds = %79
  tail call void (ptr, ...) @GC_err_printf(ptr noundef nonnull @.str.32, ptr noundef nonnull %0)
  %83 = tail call ptr @GC_realloc(ptr noundef nonnull %0, i64 noundef %1) #52
  br label %109

84:                                               ; preds = %79
  %85 = lshr i64 %80, 22
  %86 = and i64 %85, 2047
  %87 = getelementptr inbounds nuw [2048 x ptr], ptr getelementptr inbounds nuw (i8, ptr @GC_arrays, i64 166400), i64 0, i64 %86
  br label %88

88:                                               ; preds = %88, %84
  %.0.in.i = phi ptr [ %87, %84 ], [ %94, %88 ]
  %.0.i37 = load ptr, ptr %.0.in.i, align 8
  %89 = getelementptr inbounds nuw i8, ptr %.0.i37, i64 8208
  %90 = load i64, ptr %89, align 8
  %91 = icmp ne i64 %90, %85
  %92 = icmp ne ptr %.0.i37, %24
  %93 = select i1 %91, i1 %92, i1 false
  %94 = getelementptr inbounds nuw i8, ptr %.0.i37, i64 8216
  br i1 %93, label %88, label %GC_find_header.exit, !llvm.loop !15

GC_find_header.exit:                              ; preds = %88
  %95 = lshr i64 %80, 12
  %96 = and i64 %95, 1023
  %97 = getelementptr inbounds nuw [1024 x ptr], ptr %.0.i37, i64 0, i64 %96
  %98 = load ptr, ptr %97, align 8
  %99 = getelementptr inbounds nuw i8, ptr %98, i64 24
  %100 = load i8, ptr %99, align 8
  %101 = zext i8 %100 to i32
  %102 = tail call noalias ptr @GC_debug_generic_or_special_malloc(i64 noundef %1, i32 noundef %101, ptr noundef %2, i32 noundef %3) #51
  %.not35 = icmp eq ptr %102, null
  br i1 %.not35, label %109, label %103

103:                                              ; preds = %GC_find_header.exit
  %104 = getelementptr inbounds nuw i8, ptr %72, i64 16
  %105 = load i64, ptr %104, align 8
  %.not36 = icmp eq i64 %105, 0
  br i1 %.not36, label %108, label %106

106:                                              ; preds = %103
  %107 = tail call i64 @llvm.umin.i64(i64 %105, i64 %1)
  tail call void @llvm.memcpy.p0.p0.i64(ptr nonnull align 1 %102, ptr nonnull align 1 %0, i64 %107, i1 false)
  br label %108

108:                                              ; preds = %106, %103
  tail call void @GC_debug_free(ptr noundef nonnull %0)
  br label %109

109:                                              ; preds = %GC_find_header.exit, %108, %82, %17, %6
  %.0 = phi ptr [ %14, %6 ], [ null, %17 ], [ %83, %82 ], [ %102, %108 ], [ null, %GC_find_header.exit ]
  ret ptr %.0
}